target datalayout = "e-m:e-p270:32:32-p271:32:32-p272:64:64-i64:64-i128:128-f80:128-n8:16:32:64-S128"
target triple = "x86_64-unknown-linux-gnu"

%"class.std::set.0" = type { %"class.std::_Rb_tree.1" }
%"class.std::_Rb_tree.1" = type { %"struct.std::_Rb_tree<QuantLib::Observer *, QuantLib::Observer *, std::_Identity<QuantLib::Observer *>, std::less<QuantLib::Observer *>>::_Rb_tree_impl" }
%"struct.std::_Rb_tree<QuantLib::Observer *, QuantLib::Observer *, std::_Identity<QuantLib::Observer *>, std::less<QuantLib::Observer *>>::_Rb_tree_impl" = type { [8 x i8], %"struct.std::_Rb_tree_header" }
%"struct.std::_Rb_tree_header" = type { %"struct.std::_Rb_tree_node_base", i64 }
%"struct.std::_Rb_tree_node_base" = type { i32, ptr, ptr, ptr }
%"class.std::set" = type { %"class.std::_Rb_tree" }
%"class.std::_Rb_tree" = type { %"struct.std::_Rb_tree<boost::shared_ptr<QuantLib::Observable>, boost::shared_ptr<QuantLib::Observable>, std::_Identity<boost::shared_ptr<QuantLib::Observable>>, std::less<boost::shared_ptr<QuantLib::Observable>>>::_Rb_tree_impl" }
%"struct.std::_Rb_tree<boost::shared_ptr<QuantLib::Observable>, boost::shared_ptr<QuantLib::Observable>, std::_Identity<boost::shared_ptr<QuantLib::Observable>>, std::less<boost::shared_ptr<QuantLib::Observable>>>::_Rb_tree_impl" = type { [8 x i8], %"struct.std::_Rb_tree_header" }
%"class.boost::detail::shared_count" = type { ptr }
%"class.QuantLib::Observable" = type { ptr, %"class.std::set.0" }
%"class.QuantLib::Observer" = type { ptr, %"class.std::set" }
%"class.QuantLib::Date" = type { i64 }
%"class.std::vector.35" = type { %"struct.std::_Vector_base.36" }
%"struct.std::_Vector_base.36" = type { %"struct.std::_Vector_base<double, std::allocator<double>>::_Vector_impl" }
%"struct.std::_Vector_base<double, std::allocator<double>>::_Vector_impl" = type { %"struct.std::_Vector_base<double, std::allocator<double>>::_Vector_impl_data" }
%"struct.std::_Vector_base<double, std::allocator<double>>::_Vector_impl_data" = type { ptr, ptr, ptr }
%"class.QuantLib::AssetSwap" = type { %"class.QuantLib::Swap.base", %"class.boost::shared_ptr.51", double, double, double, i8, %"class.QuantLib::Date", double, double, double, %"class.QuantLib::Observable", %"class.QuantLib::Observer" }
%"class.QuantLib::Swap.base" = type { %"class.QuantLib::Instrument.base", %"class.std::vector.52", %"class.std::vector.35", %"class.std::vector.35", %"class.std::vector.35", %"class.std::vector.35", %"class.std::vector.35", double }
%"class.QuantLib::Instrument.base" = type { %"class.QuantLib::LazyObject.base", double, double, %"class.QuantLib::Date", %"class.std::map.18", %"class.boost::shared_ptr.24" }
%"class.QuantLib::LazyObject.base" = type <{ ptr, i8, i8, i8, i8 }>
%"class.std::map.18" = type { %"class.std::_Rb_tree.19" }
%"class.std::_Rb_tree.19" = type { %"struct.std::_Rb_tree<std::__cxx11::basic_string<char>, std::pair<const std::__cxx11::basic_string<char>, boost::any>, std::_Select1st<std::pair<const std::__cxx11::basic_string<char>, boost::any>>, std::less<std::__cxx11::basic_string<char>>>::_Rb_tree_impl" }
%"struct.std::_Rb_tree<std::__cxx11::basic_string<char>, std::pair<const std::__cxx11::basic_string<char>, boost::any>, std::_Select1st<std::pair<const std::__cxx11::basic_string<char>, boost::any>>, std::less<std::__cxx11::basic_string<char>>>::_Rb_tree_impl" = type { [8 x i8], %"struct.std::_Rb_tree_header" }
%"class.boost::shared_ptr.24" = type { ptr, %"class.boost::detail::shared_count" }
%"class.std::vector.52" = type { %"struct.std::_Vector_base.53" }
%"struct.std::_Vector_base.53" = type { %"struct.std::_Vector_base<std::vector<boost::shared_ptr<QuantLib::CashFlow>>, std::allocator<std::vector<boost::shared_ptr<QuantLib::CashFlow>>>>::_Vector_impl" }
%"struct.std::_Vector_base<std::vector<boost::shared_ptr<QuantLib::CashFlow>>, std::allocator<std::vector<boost::shared_ptr<QuantLib::CashFlow>>>>::_Vector_impl" = type { %"struct.std::_Vector_base<std::vector<boost::shared_ptr<QuantLib::CashFlow>>, std::allocator<std::vector<boost::shared_ptr<QuantLib::CashFlow>>>>::_Vector_impl_data" }
%"struct.std::_Vector_base<std::vector<boost::shared_ptr<QuantLib::CashFlow>>, std::allocator<std::vector<boost::shared_ptr<QuantLib::CashFlow>>>>::_Vector_impl_data" = type { ptr, ptr, ptr }
%"class.boost::shared_ptr.51" = type { ptr, %"class.boost::detail::shared_count" }
%"class.QuantLib::Null" = type { i8 }

; Function Attrs: mustprogress nounwind uwtable
define linkonce_odr noundef float @_ZNSt14numeric_limitsIfE3maxEv() #1 comdat align 2 {
entry:
  ret float 0x47EFFFFFE0000000
}

; Function Attrs: mustprogress nounwind uwtable
define linkonce_odr noundef float @_ZN8QuantLib6detail17FloatingPointNullILb1EE9nullValueEv() #1 comdat align 2 {
entry:
  %call = call noundef float @_ZNSt14numeric_limitsIfE3maxEv() #18
  ret float %call
}

; Function Attrs: mustprogress uwtable
define linkonce_odr noundef double @_ZNK8QuantLib4NullIdEcvdEv(ptr noundef nonnull align 1 dereferenceable(1) %this) #2 comdat align 2 {
entry:
  %this.addr = alloca ptr, align 8
  store ptr %this, ptr %this.addr, align 8, !tbaa !3
  %call = call noundef float @_ZN8QuantLib6detail17FloatingPointNullILb1EE9nullValueEv()
  %conv = fpext float %call to double
  ret double %conv
}

; Function Attrs: mustprogress uwtable
define void @_ZNK8QuantLib9AssetSwap12setupExpiredEv(ptr noundef nonnull align 8 dereferenceable(336) %this) unnamed_addr #2 align 2 {
entry:
  %this.addr = alloca ptr, align 8
  %ref.tmp = alloca %"class.QuantLib::Null", align 1
  %ref.tmp2 = alloca %"class.QuantLib::Null", align 1
  %ref.tmp4 = alloca %"class.QuantLib::Null", align 1
  store ptr %this, ptr %this.addr, align 8, !tbaa !3
  %this1 = load ptr, ptr %this.addr, align 8
  call void @_ZNK8QuantLib4Swap12setupExpiredEv(ptr noundef nonnull align 8 dereferenceable(256) %this1)
  call void @llvm.lifetime.start.p0(i64 1, ptr %ref.tmp) #18
  %call = call noundef double @_ZNK8QuantLib4NullIdEcvdEv(ptr noundef nonnull align 1 dereferenceable(1) %ref.tmp)
  %fairSpread_ = getelementptr inbounds nuw %"class.QuantLib::AssetSwap", ptr %this1, i32 0, i32 7
  store double %call, ptr %fairSpread_, align 8, !tbaa !141
  call void @llvm.lifetime.end.p0(i64 1, ptr %ref.tmp) #18
  call void @llvm.lifetime.start.p0(i64 1, ptr %ref.tmp2) #18
  %call3 = call noundef double @_ZNK8QuantLib4NullIdEcvdEv(ptr noundef nonnull align 1 dereferenceable(1) %ref.tmp2)
  %fairCleanPrice_ = getelementptr inbounds nuw %"class.QuantLib::AssetSwap", ptr %this1, i32 0, i32 8
  store double %call3, ptr %fairCleanPrice_, align 8, !tbaa !143
  call void @llvm.lifetime.end.p0(i64 1, ptr %ref.tmp2) #18
  call void @llvm.lifetime.start.p0(i64 1, ptr %ref.tmp4) #18
  %call5 = call noundef double @_ZNK8QuantLib4NullIdEcvdEv(ptr noundef nonnull align 1 dereferenceable(1) %ref.tmp4)
  %fairNonParRepayment_ = getelementptr inbounds nuw %"class.QuantLib::AssetSwap", ptr %this1, i32 0, i32 9
  store double %call5, ptr %fairNonParRepayment_, align 8, !tbaa !145
  call void @llvm.lifetime.end.p0(i64 1, ptr %ref.tmp4) #18
  ret void
}