; Function Attrs: mustprogress uwtable
define void @_ZNK8QuantLib9AssetSwap12setupExpiredEv(ptr noundef nonnull align 8 dereferenceable(336) %this) unnamed_addr #8 align 2 {
entry:
  tail call void @_ZNK8QuantLib4Swap12setupExpiredEv(ptr noundef nonnull align 8 dereferenceable(256) %this)
  %fairSpread_ = getelementptr inbounds nuw i8, ptr %this, i64 312
  store double 0x47EFFFFFE0000000, ptr %fairSpread_, align 8, !tbaa !179
  %fairCleanPrice_ = getelementptr inbounds nuw i8, ptr %this, i64 320
  store double 0x47EFFFFFE0000000, ptr %fairCleanPrice_, align 8, !tbaa !181
  %fairNonParRepayment_ = getelementptr inbounds nuw i8, ptr %this, i64 328
  store double 0x47EFFFFFE0000000, ptr %fairNonParRepayment_, align 8, !tbaa !183
  ret void
}